target datalayout = "e-m:e-p270:32:32-p271:32:32-p272:64:64-i64:64-i128:128-f80:128-n8:16:32:64-S128"
target triple = "x86_64-pc-linux-gnu"

%union.pthread_mutex_t = type { %struct.__pthread_mutex_s }
%struct.__pthread_mutex_s = type { i32, i32, i32, i32, i32, i16, i16, %struct.__pthread_internal_list }
%struct.__pthread_internal_list = type { ptr, ptr }
%struct.config_record_t = type { i16, i16, i16, i32, ptr, i16, ptr, ptr, i32, i64, ptr, ptr, i64, i16, i16, i32, i16, ptr, ptr, i32 }

@config_list_update_mutex = internal global %union.pthread_mutex_t zeroinitializer, align 8
@.str.131 = private unnamed_addr constant [29 x i8] c"%s: pthread_mutex_lock(): %m\00", align 1
@config_list_update = internal global i8 0, align 1
@.str.132 = private unnamed_addr constant [31 x i8] c"%s: pthread_mutex_unlock(): %m\00", align 1
@__func__._queue_consolidate_config_list = private unnamed_addr constant [31 x i8] c"_queue_consolidate_config_list\00", align 1

; Function Attrs: nounwind uwtable
define internal void @_queue_consolidate_config_list() #0 {
  %1 = alloca i32, align 4
  %2 = alloca i32, align 4
  br label %3

3:                                                ; preds = %0
  call void @llvm.lifetime.start.p0(i64 4, ptr %1) #10
  %4 = call i32 @pthread_mutex_lock(ptr noundef @config_list_update_mutex) #10
  store i32 %4, ptr %1, align 4
  %5 = load i32, ptr %1, align 4
  %6 = icmp ne i32 %5, 0
  br i1 %6, label %7, label %10

7:                                                ; preds = %3
  %8 = load i32, ptr %1, align 4
  %9 = call ptr @__errno_location() #13
  store i32 %8, ptr %9, align 4
  call void (ptr, ...) @fatal_abort(ptr noundef @.str.131, ptr noundef @__func__._queue_consolidate_config_list) #12
  unreachable

10:                                               ; preds = %3
  call void @llvm.lifetime.end.p0(i64 4, ptr %1) #10
  br label %11

11:                                               ; preds = %10
  store i8 1, ptr @config_list_update, align 1
  br label %12

12:                                               ; preds = %11
  call void @llvm.lifetime.start.p0(i64 4, ptr %2) #10
  %13 = call i32 @pthread_mutex_unlock(ptr noundef @config_list_update_mutex) #10
  store i32 %13, ptr %2, align 4
  %14 = load i32, ptr %2, align 4
  %15 = icmp ne i32 %14, 0
  br i1 %15, label %16, label %19

16:                                               ; preds = %12
  %17 = load i32, ptr %2, align 4
  %18 = call ptr @__errno_location() #13
  store i32 %17, ptr %18, align 4
  call void (ptr, ...) @fatal_abort(ptr noundef @.str.132, ptr noundef @__func__._queue_consolidate_config_list) #12
  unreachable

19:                                               ; preds = %12
  call void @llvm.lifetime.end.p0(i64 4, ptr %2) #10
  br label %20

20:                                               ; preds = %19
  ret void
}

; Function Attrs: nounwind uwtable
define dso_local ptr @_dup_config(ptr noundef %0) #0 {
  %2 = alloca ptr, align 8
  %3 = alloca ptr, align 8
  store ptr %0, ptr %2, align 8
  call void @llvm.lifetime.start.p0(i64 8, ptr %3) #10
  %4 = call ptr @create_config_record()
  store ptr %4, ptr %3, align 8
  %5 = load ptr, ptr %2, align 8
  %6 = getelementptr inbounds nuw %struct.config_record_t, ptr %5, i32 0, i32 8
  %7 = load i32, ptr %6, align 8
  %8 = load ptr, ptr %3, align 8
  %9 = getelementptr inbounds nuw %struct.config_record_t, ptr %8, i32 0, i32 8
  store i32 %7, ptr %9, align 8
  %10 = load ptr, ptr %2, align 8
  %11 = getelementptr inbounds nuw %struct.config_record_t, ptr %10, i32 0, i32 5
  %12 = load i16, ptr %11, align 8
  %13 = load ptr, ptr %3, align 8
  %14 = getelementptr inbounds nuw %struct.config_record_t, ptr %13, i32 0, i32 5
  store i16 %12, ptr %14, align 8
  %15 = load ptr, ptr %2, align 8
  %16 = getelementptr inbounds nuw %struct.config_record_t, ptr %15, i32 0, i32 4
  %17 = load ptr, ptr %16, align 8
  %18 = call ptr @xstrdup(ptr noundef %17)
  %19 = load ptr, ptr %3, align 8
  %20 = getelementptr inbounds nuw %struct.config_record_t, ptr %19, i32 0, i32 4
  store ptr %18, ptr %20, align 8
  %21 = load ptr, ptr %2, align 8
  %22 = getelementptr inbounds nuw %struct.config_record_t, ptr %21, i32 0, i32 0
  %23 = load i16, ptr %22, align 8
  %24 = load ptr, ptr %3, align 8
  %25 = getelementptr inbounds nuw %struct.config_record_t, ptr %24, i32 0, i32 0
  store i16 %23, ptr %25, align 8
  %26 = load ptr, ptr %2, align 8
  %27 = getelementptr inbounds nuw %struct.config_record_t, ptr %26, i32 0, i32 16
  %28 = load i16, ptr %27, align 8
  %29 = load ptr, ptr %3, align 8
  %30 = getelementptr inbounds nuw %struct.config_record_t, ptr %29, i32 0, i32 16
  store i16 %28, ptr %30, align 8
  %31 = load ptr, ptr %2, align 8
  %32 = getelementptr inbounds nuw %struct.config_record_t, ptr %31, i32 0, i32 2
  %33 = load i16, ptr %32, align 4
  %34 = load ptr, ptr %3, align 8
  %35 = getelementptr inbounds nuw %struct.config_record_t, ptr %34, i32 0, i32 2
  store i16 %33, ptr %35, align 4
  %36 = load ptr, ptr %2, align 8
  %37 = getelementptr inbounds nuw %struct.config_record_t, ptr %36, i32 0, i32 1
  %38 = load i16, ptr %37, align 2
  %39 = load ptr, ptr %3, align 8
  %40 = getelementptr inbounds nuw %struct.config_record_t, ptr %39, i32 0, i32 1
  store i16 %38, ptr %40, align 2
  %41 = load ptr, ptr %2, align 8
  %42 = getelementptr inbounds nuw %struct.config_record_t, ptr %41, i32 0, i32 14
  %43 = load i16, ptr %42, align 2
  %44 = load ptr, ptr %3, align 8
  %45 = getelementptr inbounds nuw %struct.config_record_t, ptr %44, i32 0, i32 14
  store i16 %43, ptr %45, align 2
  %46 = load ptr, ptr %2, align 8
  %47 = getelementptr inbounds nuw %struct.config_record_t, ptr %46, i32 0, i32 12
  %48 = load i64, ptr %47, align 8
  %49 = load ptr, ptr %3, align 8
  %50 = getelementptr inbounds nuw %struct.config_record_t, ptr %49, i32 0, i32 12
  store i64 %48, ptr %50, align 8
  %51 = load ptr, ptr %2, align 8
  %52 = getelementptr inbounds nuw %struct.config_record_t, ptr %51, i32 0, i32 13
  %53 = load i16, ptr %52, align 8
  %54 = load ptr, ptr %3, align 8
  %55 = getelementptr inbounds nuw %struct.config_record_t, ptr %54, i32 0, i32 13
  store i16 %53, ptr %55, align 8
  %56 = load ptr, ptr %2, align 8
  %57 = getelementptr inbounds nuw %struct.config_record_t, ptr %56, i32 0, i32 9
  %58 = load i64, ptr %57, align 8
  %59 = load ptr, ptr %3, align 8
  %60 = getelementptr inbounds nuw %struct.config_record_t, ptr %59, i32 0, i32 9
  store i64 %58, ptr %60, align 8
  %61 = load ptr, ptr %2, align 8
  %62 = getelementptr inbounds nuw %struct.config_record_t, ptr %61, i32 0, i32 15
  %63 = load i32, ptr %62, align 4
  %64 = load ptr, ptr %3, align 8
  %65 = getelementptr inbounds nuw %struct.config_record_t, ptr %64, i32 0, i32 15
  store i32 %63, ptr %65, align 4
  %66 = load ptr, ptr %2, align 8
  %67 = getelementptr inbounds nuw %struct.config_record_t, ptr %66, i32 0, i32 19
  %68 = load i32, ptr %67, align 8
  %69 = load ptr, ptr %3, align 8
  %70 = getelementptr inbounds nuw %struct.config_record_t, ptr %69, i32 0, i32 19
  store i32 %68, ptr %70, align 8
  %71 = load ptr, ptr %2, align 8
  %72 = getelementptr inbounds nuw %struct.config_record_t, ptr %71, i32 0, i32 6
  %73 = load ptr, ptr %72, align 8
  %74 = call ptr @xstrdup(ptr noundef %73)
  %75 = load ptr, ptr %3, align 8
  %76 = getelementptr inbounds nuw %struct.config_record_t, ptr %75, i32 0, i32 6
  store ptr %74, ptr %76, align 8
  %77 = load ptr, ptr %2, align 8
  %78 = getelementptr inbounds nuw %struct.config_record_t, ptr %77, i32 0, i32 7
  %79 = load ptr, ptr %78, align 8
  %80 = call ptr @xstrdup(ptr noundef %79)
  %81 = load ptr, ptr %3, align 8
  %82 = getelementptr inbounds nuw %struct.config_record_t, ptr %81, i32 0, i32 7
  store ptr %80, ptr %82, align 8
  call void @_queue_consolidate_config_list()
  %83 = load ptr, ptr %3, align 8
  call void @llvm.lifetime.end.p0(i64 8, ptr %3) #10
  ret ptr %83
}