; Function Attrs: nounwind uwtable
define dso_local ptr @_dup_config(ptr noundef readonly captures(none) %0) local_unnamed_addr #0 {
  %2 = tail call ptr @create_config_record() #15
  %3 = getelementptr inbounds nuw i8, ptr %0, i64 48
  %4 = load i32, ptr %3, align 8
  %5 = getelementptr inbounds nuw i8, ptr %2, i64 48
  store i32 %4, ptr %5, align 8
  %6 = getelementptr inbounds nuw i8, ptr %0, i64 24
  %7 = load i16, ptr %6, align 8
  %8 = getelementptr inbounds nuw i8, ptr %2, i64 24
  store i16 %7, ptr %8, align 8
  %9 = getelementptr inbounds nuw i8, ptr %0, i64 16
  %10 = load ptr, ptr %9, align 8
  %11 = tail call ptr @xstrdup(ptr noundef %10) #15
  %12 = getelementptr inbounds nuw i8, ptr %2, i64 16
  store ptr %11, ptr %12, align 8
  %13 = load i16, ptr %0, align 8
  store i16 %13, ptr %2, align 8
  %14 = getelementptr inbounds nuw i8, ptr %0, i64 96
  %15 = load i16, ptr %14, align 8
  %16 = getelementptr inbounds nuw i8, ptr %2, i64 96
  store i16 %15, ptr %16, align 8
  %17 = getelementptr inbounds nuw i8, ptr %0, i64 4
  %18 = load i16, ptr %17, align 4
  %19 = getelementptr inbounds nuw i8, ptr %2, i64 4
  store i16 %18, ptr %19, align 4
  %20 = getelementptr inbounds nuw i8, ptr %0, i64 2
  %21 = load i16, ptr %20, align 2
  %22 = getelementptr inbounds nuw i8, ptr %2, i64 2
  store i16 %21, ptr %22, align 2
  %23 = getelementptr inbounds nuw i8, ptr %0, i64 90
  %24 = load i16, ptr %23, align 2
  %25 = getelementptr inbounds nuw i8, ptr %2, i64 90
  store i16 %24, ptr %25, align 2
  %26 = getelementptr inbounds nuw i8, ptr %0, i64 80
  %27 = load i64, ptr %26, align 8
  %28 = getelementptr inbounds nuw i8, ptr %2, i64 80
  store i64 %27, ptr %28, align 8
  %29 = getelementptr inbounds nuw i8, ptr %0, i64 88
  %30 = load i16, ptr %29, align 8
  %31 = getelementptr inbounds nuw i8, ptr %2, i64 88
  store i16 %30, ptr %31, align 8
  %32 = getelementptr inbounds nuw i8, ptr %0, i64 56
  %33 = load i64, ptr %32, align 8
  %34 = getelementptr inbounds nuw i8, ptr %2, i64 56
  store i64 %33, ptr %34, align 8
  %35 = getelementptr inbounds nuw i8, ptr %0, i64 92
  %36 = load i32, ptr %35, align 4
  %37 = getelementptr inbounds nuw i8, ptr %2, i64 92
  store i32 %36, ptr %37, align 4
  %38 = getelementptr inbounds nuw i8, ptr %0, i64 120
  %39 = load i32, ptr %38, align 8
  %40 = getelementptr inbounds nuw i8, ptr %2, i64 120
  store i32 %39, ptr %40, align 8
  %41 = getelementptr inbounds nuw i8, ptr %0, i64 32
  %42 = load ptr, ptr %41, align 8
  %43 = tail call ptr @xstrdup(ptr noundef %42) #15
  %44 = getelementptr inbounds nuw i8, ptr %2, i64 32
  store ptr %43, ptr %44, align 8
  %45 = getelementptr inbounds nuw i8, ptr %0, i64 40
  %46 = load ptr, ptr %45, align 8
  %47 = tail call ptr @xstrdup(ptr noundef %46) #15
  %48 = getelementptr inbounds nuw i8, ptr %2, i64 40
  store ptr %47, ptr %48, align 8
  %49 = tail call i32 @pthread_mutex_lock(ptr noundef nonnull @config_list_update_mutex) #15
  %.not.i = icmp eq i32 %49, 0
  br i1 %.not.i, label %52, label %50

50:                                               ; preds = %1
  %51 = tail call ptr @__errno_location() #18
  store i32 %49, ptr %51, align 4
  tail call void (ptr, ...) @fatal_abort(ptr noundef nonnull @.str.131, ptr noundef nonnull @__func__._queue_consolidate_config_list) #17
  unreachable

52:                                               ; preds = %1
  store i1 true, ptr @config_list_update, align 1
  %53 = tail call i32 @pthread_mutex_unlock(ptr noundef nonnull @config_list_update_mutex) #15
  %.not5.i = icmp eq i32 %53, 0
  br i1 %.not5.i, label %_queue_consolidate_config_list.exit, label %54

54:                                               ; preds = %52
  %55 = tail call ptr @__errno_location() #18
  store i32 %53, ptr %55, align 4
  tail call void (ptr, ...) @fatal_abort(ptr noundef nonnull @.str.132, ptr noundef nonnull @__func__._queue_consolidate_config_list) #17
  unreachable

_queue_consolidate_config_list.exit:              ; preds = %52
  ret ptr %2
}